target datalayout = "e-m:e-p270:32:32-p271:32:32-p272:64:64-i64:64-i128:128-f80:128-n8:16:32:64-S128"
target triple = "x86_64-pc-linux-gnu"

%struct.ForEachState = type { ptr, i32 }
%struct.List = type { i32, i32, i32, ptr, [0 x %union.ListCell] }
%union.ListCell = type { ptr }
%struct.SearchPathMatcher = type { ptr, i8, i8, i64 }

@myTempNamespace = internal global i32 0, align 4
@activeCreationNamespace = internal global i32 0, align 4
@activeSearchPath = internal global ptr null, align 8
@activePathGeneration = internal global i64 1, align 8

; Function Attrs: inlinehint nounwind uwtable
define internal ptr @lnext(ptr noundef %0, ptr noundef %1) #7 {
  %3 = alloca ptr, align 8
  %4 = alloca ptr, align 8
  %5 = alloca ptr, align 8
  store ptr %0, ptr %4, align 8
  store ptr %1, ptr %5, align 8
  %6 = load ptr, ptr %5, align 8
  %7 = getelementptr inbounds nuw %union.ListCell, ptr %6, i32 1
  store ptr %7, ptr %5, align 8
  %8 = load ptr, ptr %5, align 8
  %9 = load ptr, ptr %4, align 8
  %10 = getelementptr inbounds nuw %struct.List, ptr %9, i32 0, i32 3
  %11 = load ptr, ptr %10, align 8
  %12 = load ptr, ptr %4, align 8
  %13 = getelementptr inbounds nuw %struct.List, ptr %12, i32 0, i32 1
  %14 = load i32, ptr %13, align 4
  %15 = sext i32 %14 to i64
  %16 = getelementptr inbounds %union.ListCell, ptr %11, i64 %15
  %17 = icmp ult ptr %8, %16
  br i1 %17, label %18, label %20

18:                                               ; preds = %2
  %19 = load ptr, ptr %5, align 8
  store ptr %19, ptr %3, align 8
  br label %21

20:                                               ; preds = %2
  store ptr null, ptr %3, align 8
  br label %21

21:                                               ; preds = %20, %18
  %22 = load ptr, ptr %3, align 8
  ret ptr %22
}

; Function Attrs: inlinehint nounwind uwtable
define internal ptr @list_head(ptr noundef %0) #7 {
  %2 = alloca ptr, align 8
  store ptr %0, ptr %2, align 8
  %3 = load ptr, ptr %2, align 8
  %4 = icmp ne ptr %3, null
  br i1 %4, label %5, label %10

5:                                                ; preds = %1
  %6 = load ptr, ptr %2, align 8
  %7 = getelementptr inbounds nuw %struct.List, ptr %6, i32 0, i32 3
  %8 = load ptr, ptr %7, align 8
  %9 = getelementptr inbounds %union.ListCell, ptr %8, i64 0
  br label %11

10:                                               ; preds = %1
  br label %11

11:                                               ; preds = %10, %5
  %12 = phi ptr [ %9, %5 ], [ null, %10 ]
  ret ptr %12
}

; Function Attrs: nounwind uwtable
define dso_local zeroext i1 @SearchPathMatchesCurrentEnvironment(ptr noundef %0) #0 {
  %2 = alloca i1, align 1
  %3 = alloca ptr, align 8
  %4 = alloca ptr, align 8
  %5 = alloca ptr, align 8
  %6 = alloca i32, align 4
  %7 = alloca %struct.ForEachState, align 8
  store ptr %0, ptr %3, align 8
  call void @llvm.lifetime.start.p0(i64 8, ptr %4) #14
  call void @llvm.lifetime.start.p0(i64 8, ptr %5) #14
  call void @recomputeNamespacePath()
  %8 = load ptr, ptr %3, align 8
  %9 = getelementptr inbounds nuw %struct.SearchPathMatcher, ptr %8, i32 0, i32 3
  %10 = load i64, ptr %9, align 8
  %11 = load i64, ptr @activePathGeneration, align 8
  %12 = icmp eq i64 %10, %11
  br i1 %12, label %13, label %14

13:                                               ; preds = %1
  store i1 true, ptr %2, align 1
  store i32 1, ptr %6, align 4
  br label %127

14:                                               ; preds = %1
  %15 = load ptr, ptr @activeSearchPath, align 8
  %16 = call ptr @list_head(ptr noundef %15)
  store ptr %16, ptr %4, align 8
  %17 = load ptr, ptr %3, align 8
  %18 = getelementptr inbounds nuw %struct.SearchPathMatcher, ptr %17, i32 0, i32 2
  %19 = load i8, ptr %18, align 1, !range !4, !noundef !5
  %20 = trunc i8 %19 to i1
  br i1 %20, label %21, label %35

21:                                               ; preds = %14
  %22 = load ptr, ptr %4, align 8
  %23 = icmp ne ptr %22, null
  br i1 %23, label %24, label %33

24:                                               ; preds = %21
  %25 = load ptr, ptr %4, align 8
  %26 = load i32, ptr %25, align 8
  %27 = load i32, ptr @myTempNamespace, align 4
  %28 = icmp eq i32 %26, %27
  br i1 %28, label %29, label %33

29:                                               ; preds = %24
  %30 = load ptr, ptr @activeSearchPath, align 8
  %31 = load ptr, ptr %4, align 8
  %32 = call ptr @lnext(ptr noundef %30, ptr noundef %31)
  store ptr %32, ptr %4, align 8
  br label %34

33:                                               ; preds = %24, %21
  store i1 false, ptr %2, align 1
  store i32 1, ptr %6, align 4
  br label %127

34:                                               ; preds = %29
  br label %35

35:                                               ; preds = %34, %14
  %36 = load ptr, ptr %3, align 8
  %37 = getelementptr inbounds nuw %struct.SearchPathMatcher, ptr %36, i32 0, i32 1
  %38 = load i8, ptr %37, align 8, !range !4, !noundef !5
  %39 = trunc i8 %38 to i1
  br i1 %39, label %40, label %53

40:                                               ; preds = %35
  %41 = load ptr, ptr %4, align 8
  %42 = icmp ne ptr %41, null
  br i1 %42, label %43, label %51

43:                                               ; preds = %40
  %44 = load ptr, ptr %4, align 8
  %45 = load i32, ptr %44, align 8
  %46 = icmp eq i32 %45, 11
  br i1 %46, label %47, label %51

47:                                               ; preds = %43
  %48 = load ptr, ptr @activeSearchPath, align 8
  %49 = load ptr, ptr %4, align 8
  %50 = call ptr @lnext(ptr noundef %48, ptr noundef %49)
  store ptr %50, ptr %4, align 8
  br label %52

51:                                               ; preds = %43, %40
  store i1 false, ptr %2, align 1
  store i32 1, ptr %6, align 4
  br label %127

52:                                               ; preds = %47
  br label %53

53:                                               ; preds = %52, %35
  %54 = load i32, ptr @activeCreationNamespace, align 4
  %55 = load ptr, ptr %4, align 8
  %56 = icmp ne ptr %55, null
  br i1 %56, label %57, label %60

57:                                               ; preds = %53
  %58 = load ptr, ptr %4, align 8
  %59 = load i32, ptr %58, align 8
  br label %61

60:                                               ; preds = %53
  br label %61

61:                                               ; preds = %60, %57
  %62 = phi i32 [ %59, %57 ], [ 0, %60 ]
  %63 = icmp ne i32 %54, %62
  br i1 %63, label %64, label %65

64:                                               ; preds = %61
  store i1 false, ptr %2, align 1
  store i32 1, ptr %6, align 4
  br label %127

65:                                               ; preds = %61
  call void @llvm.lifetime.start.p0(i64 16, ptr %7) #14
  %66 = getelementptr inbounds nuw %struct.ForEachState, ptr %7, i32 0, i32 0
  %67 = load ptr, ptr %3, align 8
  %68 = getelementptr inbounds nuw %struct.SearchPathMatcher, ptr %67, i32 0, i32 0
  %69 = load ptr, ptr %68, align 8
  store ptr %69, ptr %66, align 8
  %70 = getelementptr inbounds nuw %struct.ForEachState, ptr %7, i32 0, i32 1
  store i32 0, ptr %70, align 8
  %71 = getelementptr i8, ptr %7, i64 12
  call void @llvm.memset.p0.i64(ptr align 4 %71, i8 0, i64 4, i1 false)
  br label %72

72:                                               ; preds = %113, %65
  %73 = getelementptr inbounds nuw %struct.ForEachState, ptr %7, i32 0, i32 0
  %74 = load ptr, ptr %73, align 8
  %75 = icmp ne ptr %74, null
  br i1 %75, label %76, label %93

76:                                               ; preds = %72
  %77 = getelementptr inbounds nuw %struct.ForEachState, ptr %7, i32 0, i32 1
  %78 = load i32, ptr %77, align 8
  %79 = getelementptr inbounds nuw %struct.ForEachState, ptr %7, i32 0, i32 0
  %80 = load ptr, ptr %79, align 8
  %81 = getelementptr inbounds nuw %struct.List, ptr %80, i32 0, i32 1
  %82 = load i32, ptr %81, align 4
  %83 = icmp slt i32 %78, %82
  br i1 %83, label %84, label %93

84:                                               ; preds = %76
  %85 = getelementptr inbounds nuw %struct.ForEachState, ptr %7, i32 0, i32 0
  %86 = load ptr, ptr %85, align 8
  %87 = getelementptr inbounds nuw %struct.List, ptr %86, i32 0, i32 3
  %88 = load ptr, ptr %87, align 8
  %89 = getelementptr inbounds nuw %struct.ForEachState, ptr %7, i32 0, i32 1
  %90 = load i32, ptr %89, align 8
  %91 = sext i32 %90 to i64
  %92 = getelementptr inbounds %union.ListCell, ptr %88, i64 %91
  store ptr %92, ptr %5, align 8
  br label %94

93:                                               ; preds = %76, %72
  store ptr null, ptr %5, align 8
  br label %94

94:                                               ; preds = %93, %84
  %95 = phi i32 [ 1, %84 ], [ 0, %93 ]
  %96 = icmp ne i32 %95, 0
  br i1 %96, label %98, label %97

97:                                               ; preds = %94
  store i32 2, ptr %6, align 4
  br label %117

98:                                               ; preds = %94
  %99 = load ptr, ptr %4, align 8
  %100 = icmp ne ptr %99, null
  br i1 %100, label %101, label %111

101:                                              ; preds = %98
  %102 = load ptr, ptr %4, align 8
  %103 = load i32, ptr %102, align 8
  %104 = load ptr, ptr %5, align 8
  %105 = load i32, ptr %104, align 8
  %106 = icmp eq i32 %103, %105
  br i1 %106, label %107, label %111

107:                                              ; preds = %101
  %108 = load ptr, ptr @activeSearchPath, align 8
  %109 = load ptr, ptr %4, align 8
  %110 = call ptr @lnext(ptr noundef %108, ptr noundef %109)
  store ptr %110, ptr %4, align 8
  br label %112

111:                                              ; preds = %101, %98
  store i1 false, ptr %2, align 1
  store i32 1, ptr %6, align 4
  br label %117

112:                                              ; preds = %107
  br label %113

113:                                              ; preds = %112
  %114 = getelementptr inbounds nuw %struct.ForEachState, ptr %7, i32 0, i32 1
  %115 = load i32, ptr %114, align 8
  %116 = add i32 %115, 1
  store i32 %116, ptr %114, align 8
  br label %72, !llvm.loop !44

117:                                              ; preds = %111, %97
  call void @llvm.lifetime.end.p0(i64 16, ptr %7) #14
  %118 = load i32, ptr %6, align 4
  switch i32 %118, label %127 [
    i32 2, label %119
  ]

119:                                              ; preds = %117
  %120 = load ptr, ptr %4, align 8
  %121 = icmp ne ptr %120, null
  br i1 %121, label %122, label %123

122:                                              ; preds = %119
  store i1 false, ptr %2, align 1
  store i32 1, ptr %6, align 4
  br label %127

123:                                              ; preds = %119
  %124 = load i64, ptr @activePathGeneration, align 8
  %125 = load ptr, ptr %3, align 8
  %126 = getelementptr inbounds nuw %struct.SearchPathMatcher, ptr %125, i32 0, i32 3
  store i64 %124, ptr %126, align 8
  store i1 true, ptr %2, align 1
  store i32 1, ptr %6, align 4
  br label %127

127:                                              ; preds = %123, %122, %117, %64, %51, %33, %13
  call void @llvm.lifetime.end.p0(i64 8, ptr %5) #14
  call void @llvm.lifetime.end.p0(i64 8, ptr %4) #14
  %128 = load i1, ptr %2, align 1
  ret i1 %128
}