; Function Attrs: nounwind uwtable
define dso_local noundef zeroext i1 @SearchPathMatchesCurrentEnvironment(ptr noundef captures(none) %0) local_unnamed_addr #0 {
  tail call fastcc void @recomputeNamespacePath()
  %2 = getelementptr inbounds nuw i8, ptr %0, i64 16
  %3 = load i64, ptr %2, align 8
  %4 = load i64, ptr @activePathGeneration, align 8
  %5 = icmp eq i64 %3, %4
  br i1 %5, label %.thread, label %6

6:                                                ; preds = %1
  %7 = load ptr, ptr @activeSearchPath, align 8
  %.not.i = icmp eq ptr %7, null
  br i1 %.not.i, label %list_head.exit.thread, label %list_head.exit

list_head.exit:                                   ; preds = %6
  %8 = getelementptr i8, ptr %7, i64 16
  %9 = load ptr, ptr %8, align 8
  %10 = getelementptr inbounds nuw i8, ptr %0, i64 9
  %11 = load i8, ptr %10, align 1, !range !4, !noundef !5
  %12 = trunc nuw i8 %11 to i1
  br i1 %12, label %16, label %25

list_head.exit.thread:                            ; preds = %6
  %13 = getelementptr inbounds nuw i8, ptr %0, i64 9
  %14 = load i8, ptr %13, align 1, !range !4, !noundef !5
  %15 = trunc nuw i8 %14 to i1
  br i1 %15, label %.thread, label %.thread44

16:                                               ; preds = %list_head.exit
  %.not = icmp eq ptr %9, null
  br i1 %.not, label %.thread, label %17

17:                                               ; preds = %16
  %18 = load i32, ptr %9, align 8
  %19 = load i32, ptr @myTempNamespace, align 4
  %20 = icmp eq i32 %18, %19
  br i1 %20, label %21, label %.thread

21:                                               ; preds = %17
  %22 = getelementptr i8, ptr %7, i64 4
  %.val = load i32, ptr %22, align 4
  %23 = getelementptr inbounds nuw i8, ptr %9, i64 8
  %24 = icmp sgt i32 %.val, 1
  %..i = select i1 %24, ptr %23, ptr null
  br label %25

25:                                               ; preds = %21, %list_head.exit
  %.023 = phi ptr [ %..i, %21 ], [ %9, %list_head.exit ]
  %26 = getelementptr inbounds nuw i8, ptr %0, i64 8
  %27 = load i8, ptr %26, align 8, !range !4, !noundef !5
  %28 = trunc nuw i8 %27 to i1
  br i1 %28, label %32, label %44

.thread44:                                        ; preds = %list_head.exit.thread
  %29 = getelementptr inbounds nuw i8, ptr %0, i64 8
  %30 = load i8, ptr %29, align 8, !range !4, !noundef !5
  %31 = trunc nuw i8 %30 to i1
  br i1 %31, label %.thread, label %.thread50

32:                                               ; preds = %25
  %.not29 = icmp eq ptr %.023, null
  br i1 %.not29, label %.thread, label %33

33:                                               ; preds = %32
  %34 = load i32, ptr %.023, align 8
  %35 = icmp eq i32 %34, 11
  br i1 %35, label %36, label %.thread

36:                                               ; preds = %33
  %37 = getelementptr i8, ptr %7, i64 4
  %.val37 = load i32, ptr %37, align 4
  %38 = getelementptr inbounds nuw i8, ptr %.023, i64 8
  %39 = sext i32 %.val37 to i64
  %40 = getelementptr inbounds %union.ListCell, ptr %9, i64 %39
  %41 = icmp ult ptr %38, %40
  br i1 %41, label %.thread54, label %.thread50

.thread54:                                        ; preds = %36
  %42 = load i32, ptr @activeCreationNamespace, align 4
  br label %46

.thread50:                                        ; preds = %36, %.thread44
  %43 = load i32, ptr @activeCreationNamespace, align 4
  br label %49

44:                                               ; preds = %25
  %45 = load i32, ptr @activeCreationNamespace, align 4
  %.not30 = icmp eq ptr %.023, null
  br i1 %.not30, label %49, label %46

46:                                               ; preds = %.thread54, %44
  %47 = phi i32 [ %42, %.thread54 ], [ %45, %44 ]
  %.12457 = phi ptr [ %38, %.thread54 ], [ %.023, %44 ]
  %48 = load i32, ptr %.12457, align 8
  br label %49

49:                                               ; preds = %.thread50, %44, %46
  %50 = phi i32 [ %47, %46 ], [ %45, %44 ], [ %43, %.thread50 ]
  %.12453 = phi ptr [ %.12457, %46 ], [ null, %44 ], [ null, %.thread50 ]
  %51 = phi i32 [ %48, %46 ], [ 0, %44 ], [ 0, %.thread50 ]
  %.not31 = icmp eq i32 %50, %51
  br i1 %.not31, label %52, label %.thread

52:                                               ; preds = %49
  %53 = load ptr, ptr %0, align 8
  %.not32 = icmp eq ptr %53, null
  br i1 %.not32, label %.critedge, label %.lr.ph

.lr.ph:                                           ; preds = %52
  %54 = getelementptr inbounds nuw i8, ptr %53, i64 4
  %55 = load i32, ptr %54, align 4
  %56 = getelementptr inbounds nuw i8, ptr %53, i64 16
  %57 = getelementptr i8, ptr %7, i64 4
  %58 = getelementptr i8, ptr %7, i64 16
  %59 = icmp sgt i32 %55, 0
  br i1 %59, label %.lr.ph70.preheader, label %.critedge

.lr.ph70.preheader:                               ; preds = %.lr.ph
  %wide.trip.count = zext nneg i32 %55 to i64
  br label %.lr.ph70

.lr.ph70:                                         ; preds = %.lr.ph70.preheader, %66
  %indvars.iv = phi i64 [ 0, %.lr.ph70.preheader ], [ %indvars.iv.next, %66 ]
  %.26369 = phi ptr [ %.12453, %.lr.ph70.preheader ], [ %..i42, %66 ]
  %.not34 = icmp eq ptr %.26369, null
  br i1 %.not34, label %.thread, label %60

60:                                               ; preds = %.lr.ph70
  %61 = load ptr, ptr %56, align 8
  %62 = getelementptr inbounds nuw %union.ListCell, ptr %61, i64 %indvars.iv
  %63 = load i32, ptr %.26369, align 8
  %64 = load i32, ptr %62, align 8
  %65 = icmp eq i32 %63, %64
  br i1 %65, label %66, label %.thread

66:                                               ; preds = %60
  %.val39 = load i32, ptr %57, align 4
  %.val40 = load ptr, ptr %58, align 8
  %67 = getelementptr inbounds nuw i8, ptr %.26369, i64 8
  %68 = sext i32 %.val39 to i64
  %69 = getelementptr inbounds %union.ListCell, ptr %.val40, i64 %68
  %70 = icmp ult ptr %67, %69
  %..i42 = select i1 %70, ptr %67, ptr null
  %indvars.iv.next = add nuw nsw i64 %indvars.iv, 1
  %exitcond.not = icmp eq i64 %indvars.iv.next, %wide.trip.count
  br i1 %exitcond.not, label %.critedge, label %.lr.ph70

.critedge:                                        ; preds = %66, %.lr.ph, %52
  %.2.lcssa = phi ptr [ %.12453, %52 ], [ %.12453, %.lr.ph ], [ %..i42, %66 ]
  %.not35.old = icmp eq ptr %.2.lcssa, null
  br i1 %.not35.old, label %71, label %.thread

71:                                               ; preds = %.critedge
  store i64 %4, ptr %2, align 8
  br label %.thread

.thread:                                          ; preds = %.lr.ph70, %60, %.thread44, %list_head.exit.thread, %.critedge, %49, %32, %33, %16, %17, %1, %71
  %.0 = phi i1 [ true, %71 ], [ true, %1 ], [ false, %17 ], [ false, %16 ], [ false, %33 ], [ false, %32 ], [ false, %49 ], [ false, %.critedge ], [ false, %list_head.exit.thread ], [ false, %.thread44 ], [ false, %60 ], [ false, %.lr.ph70 ]
  ret i1 %.0
}